target datalayout = "e-m:e-p270:32:32-p271:32:32-p272:64:64-i64:64-i128:128-f80:128-n8:16:32:64-S128"
target triple = "x86_64-pc-linux-gnu"

%struct.SDL_VideoDevice = type { ptr, ptr, ptr, ptr, ptr, ptr, ptr, ptr, ptr, ptr, ptr, ptr, ptr, ptr, ptr, ptr, ptr, ptr, ptr, ptr, ptr, ptr, ptr, ptr, ptr, ptr, ptr, ptr, ptr, ptr, ptr, ptr, ptr, ptr, ptr, ptr, ptr, ptr, ptr, ptr, ptr, ptr, ptr, ptr, ptr, ptr, ptr, ptr, ptr, ptr, ptr, ptr, ptr, ptr, ptr, ptr, ptr, ptr, ptr, ptr, ptr, ptr, ptr, ptr, ptr, ptr, ptr, ptr, ptr, ptr, ptr, ptr, ptr, ptr, ptr, ptr, ptr, ptr, ptr, ptr, ptr, ptr, ptr, ptr, ptr, ptr, ptr, ptr, ptr, ptr, ptr, ptr, ptr, ptr, ptr, ptr, ptr, i64, i8, i8, i8, ptr, i32, ptr, %struct.SDL_Rect, ptr, ptr, i32, ptr, ptr, ptr, ptr, i64, ptr, i8, i32, i32, %struct.anon, ptr, ptr, ptr, ptr, ptr, ptr, %struct.SDL_AtomicInt, %struct.SDL_AtomicInt, i8, %struct.anon.0, ptr, ptr, ptr, ptr, ptr }
%struct.SDL_Rect = type { i32, i32, i32, i32 }
%struct.anon = type { i32, i32, i32, i32, i32, i32, i32, i32, i32, i32, i32, i32, i32, i32, i32, i32, i32, i32, i32, i32, i32, i32, i32, i32, i32, i32, i32, i32, i32, [256 x i8], ptr }
%struct.SDL_AtomicInt = type { i32 }
%struct.anon.0 = type { ptr, ptr, i32, [256 x i8], ptr }

@.str.1 = private unnamed_addr constant [1 x i8] zeroinitializer, align 1
@.str.2 = private unnamed_addr constant [34 x i8] c"unable to copy current mime types\00", align 1

; Function Attrs: nounwind uwtable
define hidden ptr @SDL_CopyClipboardMimeTypes(ptr noundef %0, i64 noundef %1, i1 noundef zeroext %2) #0 {
  %4 = alloca ptr, align 8
  %5 = alloca ptr, align 8
  %6 = alloca i64, align 8
  %7 = alloca i8, align 1
  %8 = alloca i64, align 8
  %9 = alloca i64, align 8
  %10 = alloca ptr, align 8
  %11 = alloca i32, align 4
  %12 = alloca ptr, align 8
  %13 = alloca i64, align 8
  %14 = alloca ptr, align 8
  %15 = alloca i8, align 1
  store ptr %0, ptr %5, align 8
  store i64 %1, ptr %6, align 8
  %16 = zext i1 %2 to i8
  store i8 %16, ptr %7, align 1
  call void @llvm.lifetime.start.p0(i64 8, ptr %8) #5
  store i64 8, ptr %8, align 8
  call void @llvm.lifetime.start.p0(i64 8, ptr %9) #5
  store i64 0, ptr %9, align 8
  br label %17

17:                                               ; preds = %32, %3
  %18 = load i64, ptr %9, align 8
  %19 = load i64, ptr %6, align 8
  %20 = icmp ult i64 %18, %19
  br i1 %20, label %22, label %21

21:                                               ; preds = %17
  call void @llvm.lifetime.end.p0(i64 8, ptr %9) #5
  br label %35

22:                                               ; preds = %17
  %23 = load ptr, ptr %5, align 8
  %24 = load i64, ptr %9, align 8
  %25 = getelementptr inbounds nuw ptr, ptr %23, i64 %24
  %26 = load ptr, ptr %25, align 8
  %27 = call i64 @SDL_strlen_REAL(ptr noundef %26)
  %28 = add i64 8, %27
  %29 = add i64 %28, 1
  %30 = load i64, ptr %8, align 8
  %31 = add i64 %30, %29
  store i64 %31, ptr %8, align 8
  br label %32

32:                                               ; preds = %22
  %33 = load i64, ptr %9, align 8
  %34 = add i64 %33, 1
  store i64 %34, ptr %9, align 8
  br label %17, !llvm.loop !7

35:                                               ; preds = %21
  call void @llvm.lifetime.start.p0(i64 8, ptr %10) #5
  %36 = load i8, ptr %7, align 1, !range !8, !noundef !9
  %37 = trunc i8 %36 to i1
  br i1 %37, label %38, label %41

38:                                               ; preds = %35
  %39 = load i64, ptr %8, align 8
  %40 = call ptr @SDL_AllocateTemporaryMemory(i64 noundef %39)
  store ptr %40, ptr %10, align 8
  br label %44

41:                                               ; preds = %35
  %42 = load i64, ptr %8, align 8
  %43 = call noalias ptr @SDL_malloc_REAL(i64 noundef %42)
  store ptr %43, ptr %10, align 8
  br label %44

44:                                               ; preds = %41, %38
  %45 = load ptr, ptr %10, align 8
  %46 = icmp ne ptr %45, null
  br i1 %46, label %48, label %47

47:                                               ; preds = %44
  store ptr null, ptr %4, align 8
  store i32 1, ptr %11, align 4
  br label %88

48:                                               ; preds = %44
  call void @llvm.lifetime.start.p0(i64 8, ptr %12) #5
  %49 = load ptr, ptr %10, align 8
  store ptr %49, ptr %12, align 8
  %50 = load i64, ptr %6, align 8
  %51 = add i64 %50, 1
  %52 = mul i64 8, %51
  %53 = load ptr, ptr %10, align 8
  %54 = getelementptr inbounds nuw i8, ptr %53, i64 %52
  store ptr %54, ptr %10, align 8
  call void @llvm.lifetime.start.p0(i64 8, ptr %13) #5
  store i64 0, ptr %13, align 8
  br label %55

55:                                               ; preds = %80, %48
  %56 = load i64, ptr %13, align 8
  %57 = load i64, ptr %6, align 8
  %58 = icmp ult i64 %56, %57
  br i1 %58, label %60, label %59

59:                                               ; preds = %55
  store i32 5, ptr %11, align 4
  call void @llvm.lifetime.end.p0(i64 8, ptr %13) #5
  br label %83

60:                                               ; preds = %55
  %61 = load ptr, ptr %10, align 8
  %62 = load ptr, ptr %12, align 8
  %63 = load i64, ptr %13, align 8
  %64 = getelementptr inbounds nuw ptr, ptr %62, i64 %63
  store ptr %61, ptr %64, align 8
  call void @llvm.lifetime.start.p0(i64 8, ptr %14) #5
  %65 = load ptr, ptr %5, align 8
  %66 = load i64, ptr %13, align 8
  %67 = getelementptr inbounds nuw ptr, ptr %65, i64 %66
  %68 = load ptr, ptr %67, align 8
  store ptr %68, ptr %14, align 8
  call void @llvm.lifetime.start.p0(i64 1, ptr %15) #5
  br label %69

69:                                               ; preds = %75, %60
  %70 = load ptr, ptr %14, align 8
  %71 = getelementptr inbounds nuw i8, ptr %70, i32 1
  store ptr %71, ptr %14, align 8
  %72 = load i8, ptr %70, align 1
  %73 = load ptr, ptr %10, align 8
  %74 = getelementptr inbounds nuw i8, ptr %73, i32 1
  store ptr %74, ptr %10, align 8
  store i8 %72, ptr %73, align 1
  store i8 %72, ptr %15, align 1
  br label %75

75:                                               ; preds = %69
  %76 = load i8, ptr %15, align 1
  %77 = sext i8 %76 to i32
  %78 = icmp ne i32 %77, 0
  br i1 %78, label %69, label %79, !llvm.loop !10

79:                                               ; preds = %75
  call void @llvm.lifetime.end.p0(i64 1, ptr %15) #5
  call void @llvm.lifetime.end.p0(i64 8, ptr %14) #5
  br label %80

80:                                               ; preds = %79
  %81 = load i64, ptr %13, align 8
  %82 = add i64 %81, 1
  store i64 %82, ptr %13, align 8
  br label %55, !llvm.loop !11

83:                                               ; preds = %59
  %84 = load ptr, ptr %12, align 8
  %85 = load i64, ptr %6, align 8
  %86 = getelementptr inbounds nuw ptr, ptr %84, i64 %85
  store ptr null, ptr %86, align 8
  %87 = load ptr, ptr %12, align 8
  store ptr %87, ptr %4, align 8
  store i32 1, ptr %11, align 4
  call void @llvm.lifetime.end.p0(i64 8, ptr %12) #5
  br label %88

88:                                               ; preds = %83, %47
  call void @llvm.lifetime.end.p0(i64 8, ptr %10) #5
  call void @llvm.lifetime.end.p0(i64 8, ptr %8) #5
  %89 = load ptr, ptr %4, align 8
  ret ptr %89
}

; Function Attrs: nounwind uwtable
define hidden zeroext i1 @SDL_SetPrimarySelectionText_REAL(ptr noundef %0) #0 {
  %2 = alloca i1, align 1
  %3 = alloca ptr, align 8
  %4 = alloca ptr, align 8
  %5 = alloca i32, align 4
  %6 = alloca ptr, align 8
  store ptr %0, ptr %3, align 8
  call void @llvm.lifetime.start.p0(i64 8, ptr %4) #5
  %7 = call ptr @SDL_GetVideoDevice()
  store ptr %7, ptr %4, align 8
  %8 = load ptr, ptr %4, align 8
  %9 = icmp ne ptr %8, null
  br i1 %9, label %12, label %10

10:                                               ; preds = %1
  %11 = call zeroext i1 @SDL_UninitializedVideo()
  store i1 %11, ptr %2, align 1
  store i32 1, ptr %5, align 4
  br label %56

12:                                               ; preds = %1
  %13 = load ptr, ptr %3, align 8
  %14 = icmp ne ptr %13, null
  br i1 %14, label %16, label %15

15:                                               ; preds = %12
  store ptr @.str.1, ptr %3, align 8
  br label %16

16:                                               ; preds = %15, %12
  %17 = load ptr, ptr %4, align 8
  %18 = getelementptr inbounds nuw %struct.SDL_VideoDevice, ptr %17, i32 0, i32 90
  %19 = load ptr, ptr %18, align 8
  %20 = icmp ne ptr %19, null
  br i1 %20, label %21, label %30

21:                                               ; preds = %16
  %22 = load ptr, ptr %4, align 8
  %23 = getelementptr inbounds nuw %struct.SDL_VideoDevice, ptr %22, i32 0, i32 90
  %24 = load ptr, ptr %23, align 8
  %25 = load ptr, ptr %4, align 8
  %26 = load ptr, ptr %3, align 8
  %27 = call zeroext i1 %24(ptr noundef %25, ptr noundef %26)
  br i1 %27, label %29, label %28

28:                                               ; preds = %21
  store i1 false, ptr %2, align 1
  store i32 1, ptr %5, align 4
  br label %56

29:                                               ; preds = %21
  br label %38

30:                                               ; preds = %16
  %31 = load ptr, ptr %4, align 8
  %32 = getelementptr inbounds nuw %struct.SDL_VideoDevice, ptr %31, i32 0, i32 113
  %33 = load ptr, ptr %32, align 8
  call void @SDL_free_REAL(ptr noundef %33)
  %34 = load ptr, ptr %3, align 8
  %35 = call noalias ptr @SDL_strdup_REAL(ptr noundef %34)
  %36 = load ptr, ptr %4, align 8
  %37 = getelementptr inbounds nuw %struct.SDL_VideoDevice, ptr %36, i32 0, i32 113
  store ptr %35, ptr %37, align 8
  br label %38

38:                                               ; preds = %30, %29
  call void @llvm.lifetime.start.p0(i64 8, ptr %6) #5
  %39 = load ptr, ptr %4, align 8
  %40 = getelementptr inbounds nuw %struct.SDL_VideoDevice, ptr %39, i32 0, i32 111
  %41 = load ptr, ptr %40, align 8
  %42 = load ptr, ptr %4, align 8
  %43 = getelementptr inbounds nuw %struct.SDL_VideoDevice, ptr %42, i32 0, i32 112
  %44 = load i64, ptr %43, align 8
  %45 = call ptr @SDL_CopyClipboardMimeTypes(ptr noundef %41, i64 noundef %44, i1 noundef zeroext true)
  store ptr %45, ptr %6, align 8
  %46 = load ptr, ptr %6, align 8
  %47 = icmp ne ptr %46, null
  br i1 %47, label %50, label %48

48:                                               ; preds = %38
  %49 = call zeroext i1 (ptr, ...) @SDL_SetError_REAL(ptr noundef @.str.2)
  store i1 %49, ptr %2, align 1
  store i32 1, ptr %5, align 4
  br label %55

50:                                               ; preds = %38
  %51 = load ptr, ptr %6, align 8
  %52 = load ptr, ptr %4, align 8
  %53 = getelementptr inbounds nuw %struct.SDL_VideoDevice, ptr %52, i32 0, i32 112
  %54 = load i64, ptr %53, align 8
  call void @SDL_SendClipboardUpdate(i1 noundef zeroext true, ptr noundef %51, i64 noundef %54)
  store i1 true, ptr %2, align 1
  store i32 1, ptr %5, align 4
  br label %55

55:                                               ; preds = %50, %48
  call void @llvm.lifetime.end.p0(i64 8, ptr %6) #5
  br label %56

56:                                               ; preds = %55, %28, %10
  call void @llvm.lifetime.end.p0(i64 8, ptr %4) #5
  %57 = load i1, ptr %2, align 1
  ret i1 %57
}