; Function Attrs: nounwind uwtable
define hidden zeroext i1 @SDL_SetPrimarySelectionText_REAL(ptr noundef %0) local_unnamed_addr #0 {
  %2 = tail call ptr @SDL_GetVideoDevice() #6
  %.not = icmp eq ptr %2, null
  br i1 %.not, label %3, label %5

3:                                                ; preds = %1
  %4 = tail call zeroext i1 @SDL_UninitializedVideo() #6
  br label %44

5:                                                ; preds = %1
  %.not18 = icmp eq ptr %0, null
  %spec.store.select = select i1 %.not18, ptr @.str.1, ptr %0
  %6 = getelementptr inbounds nuw i8, ptr %2, i64 720
  %7 = load ptr, ptr %6, align 8
  %.not19 = icmp eq ptr %7, null
  br i1 %.not19, label %10, label %8

8:                                                ; preds = %5
  %9 = tail call zeroext i1 %7(ptr noundef nonnull %2, ptr noundef nonnull %spec.store.select) #6
  br i1 %9, label %14, label %44

10:                                               ; preds = %5
  %11 = getelementptr inbounds nuw i8, ptr %2, i64 896
  %12 = load ptr, ptr %11, align 8
  tail call void @SDL_free_REAL(ptr noundef %12) #6
  %13 = tail call noalias ptr @SDL_strdup_REAL(ptr noundef nonnull %spec.store.select) #6
  store ptr %13, ptr %11, align 8
  br label %14

14:                                               ; preds = %8, %10
  %15 = getelementptr inbounds nuw i8, ptr %2, i64 880
  %16 = load ptr, ptr %15, align 8
  %17 = getelementptr inbounds nuw i8, ptr %2, i64 888
  %18 = load i64, ptr %17, align 8
  %.not41.i = icmp eq i64 %18, 0
  br i1 %.not41.i, label %._crit_edge.i, label %.lr.ph.i

._crit_edge.i:                                    ; preds = %14
  %19 = tail call ptr @SDL_AllocateTemporaryMemory(i64 noundef 8) #6
  %.not.i = icmp eq ptr %19, null
  br i1 %.not.i, label %SDL_CopyClipboardMimeTypes.exit.thread, label %SDL_CopyClipboardMimeTypes.exit.thread29

SDL_CopyClipboardMimeTypes.exit.thread29:         ; preds = %._crit_edge.i
  store ptr null, ptr %19, align 8
  br label %41

._crit_edge.i.thread:                             ; preds = %.lr.ph.i
  %20 = tail call ptr @SDL_AllocateTemporaryMemory(i64 noundef %25) #6
  %.not.i22 = icmp eq ptr %20, null
  br i1 %.not.i22, label %SDL_CopyClipboardMimeTypes.exit.thread, label %.lr.ph39.preheader.i

.lr.ph.i:                                         ; preds = %14, %.lr.ph.i
  %.02935.i = phi i64 [ %25, %.lr.ph.i ], [ 8, %14 ]
  %.03134.i = phi i64 [ %26, %.lr.ph.i ], [ 0, %14 ]
  %21 = getelementptr inbounds nuw ptr, ptr %16, i64 %.03134.i
  %22 = load ptr, ptr %21, align 8
  %23 = tail call i64 @SDL_strlen_REAL(ptr noundef %22) #6
  %24 = add i64 %.02935.i, 9
  %25 = add i64 %24, %23
  %26 = add nuw i64 %.03134.i, 1
  %exitcond.not.i = icmp eq i64 %26, %18
  br i1 %exitcond.not.i, label %._crit_edge.i.thread, label %.lr.ph.i, !llvm.loop !7

.lr.ph39.preheader.i:                             ; preds = %._crit_edge.i.thread
  %27 = shl i64 %18, 3
  %28 = getelementptr i8, ptr %20, i64 %27
  %29 = getelementptr i8, ptr %28, i64 8
  br label %.lr.ph39.i

.lr.ph39.i:                                       ; preds = %37, %.lr.ph39.preheader.i
  %.02837.i = phi i64 [ %38, %37 ], [ 0, %.lr.ph39.preheader.i ]
  %.136.i = phi ptr [ %36, %37 ], [ %29, %.lr.ph39.preheader.i ]
  %30 = getelementptr inbounds nuw ptr, ptr %20, i64 %.02837.i
  store ptr %.136.i, ptr %30, align 8
  %31 = getelementptr inbounds nuw ptr, ptr %16, i64 %.02837.i
  %32 = load ptr, ptr %31, align 8
  br label %33

33:                                               ; preds = %33, %.lr.ph39.i
  %.2.i = phi ptr [ %.136.i, %.lr.ph39.i ], [ %36, %33 ]
  %.027.i = phi ptr [ %32, %.lr.ph39.i ], [ %34, %33 ]
  %34 = getelementptr inbounds nuw i8, ptr %.027.i, i64 1
  %35 = load i8, ptr %.027.i, align 1
  %36 = getelementptr inbounds nuw i8, ptr %.2.i, i64 1
  store i8 %35, ptr %.2.i, align 1
  %.not33.i = icmp eq i8 %35, 0
  br i1 %.not33.i, label %37, label %33, !llvm.loop !8

37:                                               ; preds = %33
  %38 = add nuw i64 %.02837.i, 1
  %exitcond44.not.i = icmp eq i64 %38, %18
  br i1 %exitcond44.not.i, label %SDL_CopyClipboardMimeTypes.exit, label %.lr.ph39.i, !llvm.loop !9

SDL_CopyClipboardMimeTypes.exit:                  ; preds = %37
  %39 = getelementptr inbounds nuw ptr, ptr %20, i64 %18
  store ptr null, ptr %39, align 8
  br label %41

SDL_CopyClipboardMimeTypes.exit.thread:           ; preds = %._crit_edge.i, %._crit_edge.i.thread
  %40 = tail call zeroext i1 (ptr, ...) @SDL_SetError_REAL(ptr noundef nonnull @.str.2) #6
  br label %44

41:                                               ; preds = %SDL_CopyClipboardMimeTypes.exit, %SDL_CopyClipboardMimeTypes.exit.thread29
  %42 = phi ptr [ %19, %SDL_CopyClipboardMimeTypes.exit.thread29 ], [ %20, %SDL_CopyClipboardMimeTypes.exit ]
  %43 = load i64, ptr %17, align 8
  tail call void @SDL_SendClipboardUpdate(i1 noundef zeroext true, ptr noundef nonnull %42, i64 noundef %43) #6
  br label %44

44:                                               ; preds = %SDL_CopyClipboardMimeTypes.exit.thread, %41, %8, %3
  %.0 = phi i1 [ %4, %3 ], [ false, %8 ], [ true, %41 ], [ %40, %SDL_CopyClipboardMimeTypes.exit.thread ]
  ret i1 %.0
}